; Function Attrs: mustprogress uwtable
define void @_ZN5arrow23ExportRecordBatchReaderESt10shared_ptrINS_17RecordBatchReaderEEP16ArrowArrayStream(ptr noalias nocapture writeonly sret(%"class.arrow::Status") align 8 %agg.result, ptr nocapture noundef %reader, ptr nocapture noundef writeonly %out) local_unnamed_addr #0 personality ptr @__gxx_personality_v0 {
_ZNSt10shared_ptrIN5arrow17RecordBatchReaderEED2Ev.exit:
  store ptr @_ZN5arrow12_GLOBAL__N_119ExportedArrayStream15StaticGetSchemaEP16ArrowArrayStreamP11ArrowSchema, ptr %out, align 8
  %get_next = getelementptr inbounds i8, ptr %out, i64 8
  store ptr @_ZN5arrow12_GLOBAL__N_119ExportedArrayStream13StaticGetNextEP16ArrowArrayStreamP10ArrowArray, ptr %get_next, align 8
  %get_last_error = getelementptr inbounds i8, ptr %out, i64 16
  store ptr @_ZN5arrow12_GLOBAL__N_119ExportedArrayStream18StaticGetLastErrorEP16ArrowArrayStream, ptr %get_last_error, align 8
  %release = getelementptr inbounds i8, ptr %out, i64 24
  store ptr @_ZN5arrow12_GLOBAL__N_119ExportedArrayStream13StaticReleaseEP16ArrowArrayStream, ptr %release, align 8
  %call = tail call noalias noundef nonnull dereferenceable(48) ptr @_Znwm(i64 noundef 48) #27
  %0 = load <2 x ptr>, ptr %reader, align 8
  tail call void @llvm.memset.p0.i64(ptr noundef nonnull align 8 dereferenceable(16) %reader, i8 0, i64 16, i1 false)
  store <2 x ptr> %0, ptr %call, align 8
  %last_error_.i = getelementptr inbounds i8, ptr %call, i64 16
  tail call void @_ZNSt7__cxx1112basic_stringIcSt11char_traitsIcESaIcEEC1Ev(ptr noundef nonnull align 8 dereferenceable(32) %last_error_.i) #24
  %private_data = getelementptr inbounds i8, ptr %out, i64 32
  store ptr %call, ptr %private_data, align 8
  store ptr null, ptr %agg.result, align 8, !alias.scope !325
  ret void
}